target datalayout = "e-m:e-p270:32:32-p271:32:32-p272:64:64-i64:64-i128:128-f80:128-n8:16:32:64-S128"
target triple = "x86_64-pc-linux-gnu"

%struct.jpeg_decompress_struct = type { ptr, ptr, ptr, ptr, i32, i32, ptr, i32, i32, i32, i32, i32, i32, i32, double, i32, i32, i32, i32, i32, i32, i32, i32, i32, i32, i32, i32, i32, i32, i32, i32, i32, i32, ptr, i32, i32, i32, i32, i32, ptr, [4 x ptr], [4 x ptr], [4 x ptr], i32, ptr, i32, i32, [16 x i8], [16 x i8], [16 x i8], i32, i32, i8, i8, i8, i16, i16, i32, i8, i32, ptr, i32, i32, i32, i32, ptr, i32, [4 x ptr], i32, i32, i32, [10 x i32], i32, i32, i32, i32, i32, ptr, ptr, ptr, ptr, ptr, ptr, ptr, ptr, ptr, ptr, ptr }
%struct.jpeg_error_mgr = type { ptr, ptr, ptr, ptr, ptr, i32, %union.anon, i32, i64, ptr, i32, ptr, i32, i32 }
%union.anon = type { [8 x i32], [48 x i8] }
%struct.jpeg_entropy_decoder = type { ptr, ptr, i32 }
%struct.huff_entropy_decoder = type { %struct.jpeg_entropy_decoder, %struct.bitread_perm_state, %struct.savable_state, i32, [4 x ptr], [4 x ptr], [10 x ptr], [10 x ptr], [10 x i32], [10 x i32] }
%struct.bitread_perm_state = type { i32, i32 }
%struct.savable_state = type { [4 x i32] }
%struct.jpeg_component_info = type { i32, i32, i32, i32, i32, i32, i32, i32, i32, i32, i32, i32, i32, i32, i32, i32, i32, i32, i32, ptr, ptr }

; Function Attrs: nounwind uwtable
define internal void @start_pass_huff_decoder(ptr noundef %0) #0 {
  %2 = alloca ptr, align 8
  %3 = alloca ptr, align 8
  %4 = alloca i32, align 4
  %5 = alloca i32, align 4
  %6 = alloca i32, align 4
  %7 = alloca i32, align 4
  %8 = alloca ptr, align 8
  store ptr %0, ptr %2, align 8
  %9 = load ptr, ptr %2, align 8
  %10 = getelementptr inbounds %struct.jpeg_decompress_struct, ptr %9, i32 0, i32 83
  %11 = load ptr, ptr %10, align 8
  store ptr %11, ptr %3, align 8
  %12 = load ptr, ptr %2, align 8
  %13 = getelementptr inbounds %struct.jpeg_decompress_struct, ptr %12, i32 0, i32 72
  %14 = load i32, ptr %13, align 4
  %15 = icmp ne i32 %14, 0
  br i1 %15, label %31, label %16

16:                                               ; preds = %1
  %17 = load ptr, ptr %2, align 8
  %18 = getelementptr inbounds %struct.jpeg_decompress_struct, ptr %17, i32 0, i32 73
  %19 = load i32, ptr %18, align 8
  %20 = icmp ne i32 %19, 63
  br i1 %20, label %31, label %21

21:                                               ; preds = %16
  %22 = load ptr, ptr %2, align 8
  %23 = getelementptr inbounds %struct.jpeg_decompress_struct, ptr %22, i32 0, i32 74
  %24 = load i32, ptr %23, align 4
  %25 = icmp ne i32 %24, 0
  br i1 %25, label %31, label %26

26:                                               ; preds = %21
  %27 = load ptr, ptr %2, align 8
  %28 = getelementptr inbounds %struct.jpeg_decompress_struct, ptr %27, i32 0, i32 75
  %29 = load i32, ptr %28, align 8
  %30 = icmp ne i32 %29, 0
  br i1 %30, label %31, label %42

31:                                               ; preds = %26, %21, %16, %1
  %32 = load ptr, ptr %2, align 8
  %33 = getelementptr inbounds %struct.jpeg_decompress_struct, ptr %32, i32 0, i32 0
  %34 = load ptr, ptr %33, align 8
  %35 = getelementptr inbounds %struct.jpeg_error_mgr, ptr %34, i32 0, i32 5
  store i32 122, ptr %35, align 8
  %36 = load ptr, ptr %2, align 8
  %37 = getelementptr inbounds %struct.jpeg_decompress_struct, ptr %36, i32 0, i32 0
  %38 = load ptr, ptr %37, align 8
  %39 = getelementptr inbounds %struct.jpeg_error_mgr, ptr %38, i32 0, i32 1
  %40 = load ptr, ptr %39, align 8
  %41 = load ptr, ptr %2, align 8
  call void %40(ptr noundef %41, i32 noundef -1)
  br label %42

42:                                               ; preds = %31, %26
  store i32 0, ptr %4, align 4
  br label %43

43:                                               ; preds = %82, %42
  %44 = load i32, ptr %4, align 4
  %45 = load ptr, ptr %2, align 8
  %46 = getelementptr inbounds %struct.jpeg_decompress_struct, ptr %45, i32 0, i32 66
  %47 = load i32, ptr %46, align 8
  %48 = icmp slt i32 %44, %47
  br i1 %48, label %49, label %85

49:                                               ; preds = %43
  %50 = load ptr, ptr %2, align 8
  %51 = getelementptr inbounds %struct.jpeg_decompress_struct, ptr %50, i32 0, i32 67
  %52 = load i32, ptr %4, align 4
  %53 = sext i32 %52 to i64
  %54 = getelementptr inbounds [4 x ptr], ptr %51, i64 0, i64 %53
  %55 = load ptr, ptr %54, align 8
  store ptr %55, ptr %8, align 8
  %56 = load ptr, ptr %8, align 8
  %57 = getelementptr inbounds %struct.jpeg_component_info, ptr %56, i32 0, i32 5
  %58 = load i32, ptr %57, align 4
  store i32 %58, ptr %6, align 4
  %59 = load ptr, ptr %8, align 8
  %60 = getelementptr inbounds %struct.jpeg_component_info, ptr %59, i32 0, i32 6
  %61 = load i32, ptr %60, align 8
  store i32 %61, ptr %7, align 4
  %62 = load ptr, ptr %2, align 8
  %63 = load i32, ptr %6, align 4
  %64 = load ptr, ptr %3, align 8
  %65 = getelementptr inbounds %struct.huff_entropy_decoder, ptr %64, i32 0, i32 4
  %66 = load i32, ptr %6, align 4
  %67 = sext i32 %66 to i64
  %68 = getelementptr inbounds [4 x ptr], ptr %65, i64 0, i64 %67
  call void @jMkDDerived(ptr noundef %62, i32 noundef 1, i32 noundef %63, ptr noundef %68)
  %69 = load ptr, ptr %2, align 8
  %70 = load i32, ptr %7, align 4
  %71 = load ptr, ptr %3, align 8
  %72 = getelementptr inbounds %struct.huff_entropy_decoder, ptr %71, i32 0, i32 5
  %73 = load i32, ptr %7, align 4
  %74 = sext i32 %73 to i64
  %75 = getelementptr inbounds [4 x ptr], ptr %72, i64 0, i64 %74
  call void @jMkDDerived(ptr noundef %69, i32 noundef 0, i32 noundef %70, ptr noundef %75)
  %76 = load ptr, ptr %3, align 8
  %77 = getelementptr inbounds %struct.huff_entropy_decoder, ptr %76, i32 0, i32 2
  %78 = getelementptr inbounds %struct.savable_state, ptr %77, i32 0, i32 0
  %79 = load i32, ptr %4, align 4
  %80 = sext i32 %79 to i64
  %81 = getelementptr inbounds [4 x i32], ptr %78, i64 0, i64 %80
  store i32 0, ptr %81, align 4
  br label %82

82:                                               ; preds = %49
  %83 = load i32, ptr %4, align 4
  %84 = add nsw i32 %83, 1
  store i32 %84, ptr %4, align 4
  br label %43, !llvm.loop !20

85:                                               ; preds = %43
  store i32 0, ptr %5, align 4
  br label %86

86:                                               ; preds = %163, %85
  %87 = load i32, ptr %5, align 4
  %88 = load ptr, ptr %2, align 8
  %89 = getelementptr inbounds %struct.jpeg_decompress_struct, ptr %88, i32 0, i32 70
  %90 = load i32, ptr %89, align 8
  %91 = icmp slt i32 %87, %90
  br i1 %91, label %92, label %166

92:                                               ; preds = %86
  %93 = load ptr, ptr %2, align 8
  %94 = getelementptr inbounds %struct.jpeg_decompress_struct, ptr %93, i32 0, i32 71
  %95 = load i32, ptr %5, align 4
  %96 = sext i32 %95 to i64
  %97 = getelementptr inbounds [10 x i32], ptr %94, i64 0, i64 %96
  %98 = load i32, ptr %97, align 4
  store i32 %98, ptr %4, align 4
  %99 = load ptr, ptr %2, align 8
  %100 = getelementptr inbounds %struct.jpeg_decompress_struct, ptr %99, i32 0, i32 67
  %101 = load i32, ptr %4, align 4
  %102 = sext i32 %101 to i64
  %103 = getelementptr inbounds [4 x ptr], ptr %100, i64 0, i64 %102
  %104 = load ptr, ptr %103, align 8
  store ptr %104, ptr %8, align 8
  %105 = load ptr, ptr %3, align 8
  %106 = getelementptr inbounds %struct.huff_entropy_decoder, ptr %105, i32 0, i32 4
  %107 = load ptr, ptr %8, align 8
  %108 = getelementptr inbounds %struct.jpeg_component_info, ptr %107, i32 0, i32 5
  %109 = load i32, ptr %108, align 4
  %110 = sext i32 %109 to i64
  %111 = getelementptr inbounds [4 x ptr], ptr %106, i64 0, i64 %110
  %112 = load ptr, ptr %111, align 8
  %113 = load ptr, ptr %3, align 8
  %114 = getelementptr inbounds %struct.huff_entropy_decoder, ptr %113, i32 0, i32 6
  %115 = load i32, ptr %5, align 4
  %116 = sext i32 %115 to i64
  %117 = getelementptr inbounds [10 x ptr], ptr %114, i64 0, i64 %116
  store ptr %112, ptr %117, align 8
  %118 = load ptr, ptr %3, align 8
  %119 = getelementptr inbounds %struct.huff_entropy_decoder, ptr %118, i32 0, i32 5
  %120 = load ptr, ptr %8, align 8
  %121 = getelementptr inbounds %struct.jpeg_component_info, ptr %120, i32 0, i32 6
  %122 = load i32, ptr %121, align 8
  %123 = sext i32 %122 to i64
  %124 = getelementptr inbounds [4 x ptr], ptr %119, i64 0, i64 %123
  %125 = load ptr, ptr %124, align 8
  %126 = load ptr, ptr %3, align 8
  %127 = getelementptr inbounds %struct.huff_entropy_decoder, ptr %126, i32 0, i32 7
  %128 = load i32, ptr %5, align 4
  %129 = sext i32 %128 to i64
  %130 = getelementptr inbounds [10 x ptr], ptr %127, i64 0, i64 %129
  store ptr %125, ptr %130, align 8
  %131 = load ptr, ptr %8, align 8
  %132 = getelementptr inbounds %struct.jpeg_component_info, ptr %131, i32 0, i32 12
  %133 = load i32, ptr %132, align 8
  %134 = icmp ne i32 %133, 0
  br i1 %134, label %135, label %151

135:                                              ; preds = %92
  %136 = load ptr, ptr %3, align 8
  %137 = getelementptr inbounds %struct.huff_entropy_decoder, ptr %136, i32 0, i32 8
  %138 = load i32, ptr %5, align 4
  %139 = sext i32 %138 to i64
  %140 = getelementptr inbounds [10 x i32], ptr %137, i64 0, i64 %139
  store i32 1, ptr %140, align 4
  %141 = load ptr, ptr %8, align 8
  %142 = getelementptr inbounds %struct.jpeg_component_info, ptr %141, i32 0, i32 9
  %143 = load i32, ptr %142, align 4
  %144 = icmp sgt i32 %143, 1
  %145 = zext i1 %144 to i32
  %146 = load ptr, ptr %3, align 8
  %147 = getelementptr inbounds %struct.huff_entropy_decoder, ptr %146, i32 0, i32 9
  %148 = load i32, ptr %5, align 4
  %149 = sext i32 %148 to i64
  %150 = getelementptr inbounds [10 x i32], ptr %147, i64 0, i64 %149
  store i32 %145, ptr %150, align 4
  br label %162

151:                                              ; preds = %92
  %152 = load ptr, ptr %3, align 8
  %153 = getelementptr inbounds %struct.huff_entropy_decoder, ptr %152, i32 0, i32 9
  %154 = load i32, ptr %5, align 4
  %155 = sext i32 %154 to i64
  %156 = getelementptr inbounds [10 x i32], ptr %153, i64 0, i64 %155
  store i32 0, ptr %156, align 4
  %157 = load ptr, ptr %3, align 8
  %158 = getelementptr inbounds %struct.huff_entropy_decoder, ptr %157, i32 0, i32 8
  %159 = load i32, ptr %5, align 4
  %160 = sext i32 %159 to i64
  %161 = getelementptr inbounds [10 x i32], ptr %158, i64 0, i64 %160
  store i32 0, ptr %161, align 4
  br label %162

162:                                              ; preds = %151, %135
  br label %163

163:                                              ; preds = %162
  %164 = load i32, ptr %5, align 4
  %165 = add nsw i32 %164, 1
  store i32 %165, ptr %5, align 4
  br label %86, !llvm.loop !21

166:                                              ; preds = %86
  %167 = load ptr, ptr %3, align 8
  %168 = getelementptr inbounds %struct.huff_entropy_decoder, ptr %167, i32 0, i32 1
  %169 = getelementptr inbounds %struct.bitread_perm_state, ptr %168, i32 0, i32 1
  store i32 0, ptr %169, align 4
  %170 = load ptr, ptr %3, align 8
  %171 = getelementptr inbounds %struct.huff_entropy_decoder, ptr %170, i32 0, i32 1
  %172 = getelementptr inbounds %struct.bitread_perm_state, ptr %171, i32 0, i32 0
  store i32 0, ptr %172, align 8
  %173 = load ptr, ptr %3, align 8
  %174 = getelementptr inbounds %struct.huff_entropy_decoder, ptr %173, i32 0, i32 0
  %175 = getelementptr inbounds %struct.jpeg_entropy_decoder, ptr %174, i32 0, i32 2
  store i32 0, ptr %175, align 8
  %176 = load ptr, ptr %2, align 8
  %177 = getelementptr inbounds %struct.jpeg_decompress_struct, ptr %176, i32 0, i32 50
  %178 = load i32, ptr %177, align 8
  %179 = load ptr, ptr %3, align 8
  %180 = getelementptr inbounds %struct.huff_entropy_decoder, ptr %179, i32 0, i32 3
  store i32 %178, ptr %180, align 8
  ret void
}